; Function Attrs: mustprogress nofree norecurse nosync nounwind willreturn memory(read, inaccessiblemem: none) uwtable
define internal fastcc noundef zeroext i1 @_ZL14IsSameCharTypeN5clang8QualTypeES0_(i64 %0, i64 %1) unnamed_addr #12 {
  %3 = and i64 %0, -16
  %4 = inttoptr i64 %3 to ptr
  %5 = load ptr, ptr %4, align 16
  %6 = getelementptr inbounds nuw i8, ptr %5, i64 8
  %.sroa.0.0.copyload.i.i.i.i = load i64, ptr %6, align 8
  %7 = and i64 %.sroa.0.0.copyload.i.i.i.i, -16
  %8 = inttoptr i64 %7 to ptr
  %9 = load ptr, ptr %8, align 16
  %10 = getelementptr inbounds nuw i8, ptr %9, i64 16
  %11 = load i8, ptr %10, align 16
  %12 = icmp ne i8 %11, 13
  %.not24 = icmp eq ptr %9, null
  %.not = or i1 %.not24, %12
  br i1 %.not, label %43, label %13

13:                                               ; preds = %2
  %14 = and i64 %1, -16
  %15 = inttoptr i64 %14 to ptr
  %16 = load ptr, ptr %15, align 16
  %17 = getelementptr inbounds nuw i8, ptr %16, i64 8
  %.sroa.0.0.copyload.i.i.i.i21 = load i64, ptr %17, align 8
  %18 = and i64 %.sroa.0.0.copyload.i.i.i.i21, -16
  %19 = inttoptr i64 %18 to ptr
  %20 = load ptr, ptr %19, align 16
  %21 = getelementptr inbounds nuw i8, ptr %20, i64 16
  %22 = load i8, ptr %21, align 16
  %23 = icmp ne i8 %22, 13
  %.not1925 = icmp eq ptr %20, null
  %.not19 = or i1 %.not1925, %23
  br i1 %.not19, label %43, label %24

24:                                               ; preds = %13
  %25 = load i32, ptr %10, align 16
  %26 = lshr i32 %25, 19
  %27 = and i32 %26, 511
  %28 = load i32, ptr %21, align 16
  %29 = lshr i32 %28, 19
  %30 = and i32 %29, 511
  %31 = icmp eq i32 %27, 442
  %32 = icmp eq i32 %30, 441
  %or.cond = and i1 %31, %32
  br i1 %or.cond, label %43, label %33

33:                                               ; preds = %24
  %34 = icmp eq i32 %27, 431
  %35 = icmp eq i32 %30, 430
  %or.cond3 = and i1 %34, %35
  br i1 %or.cond3, label %43, label %36

36:                                               ; preds = %33
  %37 = icmp eq i32 %27, 430
  %38 = icmp eq i32 %30, 431
  %or.cond5 = and i1 %37, %38
  br i1 %or.cond5, label %43, label %39

39:                                               ; preds = %36
  %40 = icmp eq i32 %27, 441
  %41 = icmp eq i32 %30, 442
  %42 = and i1 %40, %41
  br label %43

43:                                               ; preds = %39, %24, %33, %36, %13, %2
  %.0 = phi i1 [ false, %2 ], [ false, %13 ], [ %42, %39 ], [ true, %24 ], [ true, %33 ], [ true, %36 ]
  ret i1 %.0
}